; Function Attrs: nounwind uwtable
define dso_local noundef zeroext i1 @agg_args_support_sendreceive(ptr noundef readonly captures(none) %0) local_unnamed_addr #0 {
  %2 = getelementptr inbounds nuw i8, ptr %0, i64 40
  %3 = load ptr, ptr %2, align 8
  %.not = icmp eq ptr %3, null
  br i1 %.not, label %.critedge29, label %.lr.ph

.lr.ph:                                           ; preds = %1
  %4 = getelementptr inbounds nuw i8, ptr %3, i64 4
  %5 = getelementptr inbounds nuw i8, ptr %3, i64 16
  %6 = load i32, ptr %4, align 4
  %7 = icmp sgt i32 %6, 0
  br i1 %7, label %.lr.ph42, label %.critedge29

.lr.ph42:                                         ; preds = %.lr.ph, %.critedge
  %indvars.iv = phi i64 [ %indvars.iv.next, %.critedge ], [ 0, %.lr.ph ]
  %8 = load ptr, ptr %5, align 8
  %9 = getelementptr inbounds nuw %union.ListCell, ptr %8, i64 %indvars.iv
  %10 = load ptr, ptr %9, align 8
  %11 = getelementptr inbounds nuw i8, ptr %10, i64 8
  %12 = load ptr, ptr %11, align 8
  %13 = tail call i32 @exprType(ptr noundef %12) #11
  %14 = zext i32 %13 to i64
  %15 = tail call ptr @SearchSysCache1(i32 noundef 82, i64 noundef %14) #11
  %.not25 = icmp eq ptr %15, null
  br i1 %.not25, label %.split, label %18

.split:                                           ; preds = %.lr.ph42
  %16 = tail call zeroext i1 @errstart_cold(i32 noundef 21, ptr noundef null) #12
  tail call void @llvm.assume(i1 %16)
  %17 = tail call i32 (ptr, ...) @errmsg_internal(ptr noundef nonnull @.str.28, i32 noundef %13) #11
  tail call void @errfinish(ptr noundef nonnull @.str.2, i32 noundef 2072, ptr noundef nonnull @__func__.agg_args_support_sendreceive) #11
  unreachable

18:                                               ; preds = %.lr.ph42
  %19 = getelementptr i8, ptr %15, i64 16
  %.val = load ptr, ptr %19, align 8
  %20 = getelementptr inbounds nuw i8, ptr %.val, i64 22
  %21 = load i8, ptr %20, align 2
  %22 = zext i8 %21 to i64
  %23 = getelementptr inbounds nuw i8, ptr %.val, i64 %22
  %24 = getelementptr inbounds nuw i8, ptr %23, i64 78
  %25 = load i8, ptr %24, align 2, !range !6, !noundef !7
  %26 = trunc nuw i8 %25 to i1
  br i1 %26, label %.critedge, label %27

27:                                               ; preds = %18
  %28 = getelementptr inbounds nuw i8, ptr %23, i64 112
  %29 = load i32, ptr %28, align 4
  %.not26 = icmp eq i32 %29, 0
  br i1 %.not26, label %.split39, label %30

30:                                               ; preds = %27
  %31 = getelementptr inbounds nuw i8, ptr %23, i64 108
  %32 = load i32, ptr %31, align 4
  %.not27 = icmp eq i32 %32, 0
  br i1 %.not27, label %.split39, label %.critedge

.split39:                                         ; preds = %27, %30
  tail call void @ReleaseSysCache(ptr noundef nonnull %15) #11
  br label %.critedge29

.critedge:                                        ; preds = %30, %18
  tail call void @ReleaseSysCache(ptr noundef nonnull %15) #11
  %indvars.iv.next = add nuw nsw i64 %indvars.iv, 1
  %33 = load i32, ptr %4, align 4
  %34 = sext i32 %33 to i64
  %35 = icmp slt i64 %indvars.iv.next, %34
  br i1 %35, label %.lr.ph42, label %.critedge29

.critedge29:                                      ; preds = %.critedge, %1, %.lr.ph, %.split39
  %.not2432 = phi i1 [ false, %.split39 ], [ true, %.lr.ph ], [ true, %1 ], [ true, %.critedge ]
  ret i1 %.not2432
}